; Function Attrs: nounwind uwtable
define dso_local zeroext i1 @HeapTupleIsSurelyDead(ptr noundef readonly captures(none) %0, ptr noundef %1) local_unnamed_addr #0 {
  %3 = getelementptr inbounds nuw i8, ptr %0, i64 16
  %4 = load ptr, ptr %3, align 8
  %5 = getelementptr i8, ptr %4, i64 20
  %.val = load i16, ptr %5, align 4
  %6 = and i16 %.val, 256
  %.not14 = icmp eq i16 %6, 0
  br i1 %.not14, label %7, label %10

7:                                                ; preds = %2
  %8 = and i16 %.val, 512
  %9 = icmp ne i16 %8, 0
  br label %21

10:                                               ; preds = %2
  %11 = and i16 %.val, 2048
  %.not = icmp eq i16 %11, 0
  br i1 %.not, label %12, label %21

12:                                               ; preds = %10
  %13 = zext i16 %.val to i32
  %14 = and i32 %13, 4176
  %15 = icmp ne i32 %14, 64
  %16 = and i32 %13, 5248
  %17 = icmp eq i32 %16, 1024
  %or.cond = and i1 %17, %15
  br i1 %or.cond, label %18, label %21

18:                                               ; preds = %12
  %19 = getelementptr i8, ptr %4, i64 4
  %.val13 = load i32, ptr %19, align 4
  %20 = tail call zeroext i1 @GlobalVisTestIsRemovableXid(ptr noundef %1, i32 noundef %.val13) #4
  br label %21

21:                                               ; preds = %12, %10, %18, %7
  %.0 = phi i1 [ %20, %18 ], [ %9, %7 ], [ false, %10 ], [ false, %12 ]
  ret i1 %.0
}